; Function Attrs: nounwind uwtable
define noalias noundef nonnull ptr @l___private_Lean_Elab_Binders_0__Lean_Elab_Term_checkMatchAltPatternCounts___lambda__1(ptr noundef readonly captures(none) %0, ptr noundef %1, ptr readnone captures(none) %2, ptr readnone captures(none) %3, ptr readnone captures(none) %4, ptr readnone captures(none) %5, ptr noundef %6) local_unnamed_addr #1 {
  %8 = tail call ptr @l_Lean_Expr_getAppFn(ptr noundef %1) #6
  %9 = tail call zeroext i8 @l_Lean_Expr_isMVar(ptr noundef %8) #6
  %10 = ptrtoint ptr %8 to i64
  %11 = and i64 %10, 1
  %.not = icmp eq i64 %11, 0
  br i1 %.not, label %12, label %lean_dec.exit

12:                                               ; preds = %7
  %13 = load i32, ptr %8, align 4, !tbaa !8
  %14 = icmp sgt i32 %13, 1
  br i1 %14, label %15, label %17, !prof !11

15:                                               ; preds = %12
  %16 = add nsw i32 %13, -1
  store i32 %16, ptr %8, align 4, !tbaa !8
  br label %lean_dec.exit

17:                                               ; preds = %12
  %.not.i = icmp eq i32 %13, 0
  br i1 %.not.i, label %lean_dec.exit, label %18

18:                                               ; preds = %17
  tail call void @lean_dec_ref_cold(ptr noundef nonnull %8) #6
  br label %lean_dec.exit

lean_dec.exit:                                    ; preds = %18, %17, %15, %7
  %19 = icmp eq i8 %9, 0
  br i1 %19, label %20, label %33

20:                                               ; preds = %lean_dec.exit
  %21 = getelementptr i8, ptr %0, i64 8
  %.val = load i64, ptr %21, align 8, !tbaa !13
  tail call void @lean_inc_heartbeat() #6
  %22 = tail call noalias ptr @mi_malloc_small(i64 noundef 16) #6
  %23 = icmp eq ptr %22, null
  br i1 %23, label %24, label %lean_alloc_ctor.exit

24:                                               ; preds = %20
  tail call void @lean_internal_panic_out_of_memory() #7
  unreachable

lean_alloc_ctor.exit:                             ; preds = %20
  %25 = shl i64 %.val, 1
  %26 = or disjoint i64 %25, 1
  %27 = inttoptr i64 %26 to ptr
  %28 = getelementptr inbounds nuw i8, ptr %22, i64 4
  store i32 1, ptr %22, align 4, !tbaa !8
  store i32 16842768, ptr %28, align 4
  %29 = getelementptr inbounds nuw i8, ptr %22, i64 8
  store ptr %27, ptr %29, align 8, !tbaa !4
  tail call void @lean_inc_heartbeat() #6
  %30 = tail call noalias ptr @mi_malloc_small(i64 noundef 24) #6
  %31 = icmp eq ptr %30, null
  br i1 %31, label %32, label %lean_alloc_ctor.exit17

32:                                               ; preds = %lean_alloc_ctor.exit
  tail call void @lean_internal_panic_out_of_memory() #7
  unreachable

33:                                               ; preds = %lean_dec.exit
  tail call void @lean_inc_heartbeat() #6
  %34 = tail call noalias ptr @mi_malloc_small(i64 noundef 24) #6
  %35 = icmp eq ptr %34, null
  br i1 %35, label %36, label %lean_alloc_ctor.exit17

36:                                               ; preds = %33
  tail call void @lean_internal_panic_out_of_memory() #7
  unreachable

lean_alloc_ctor.exit17:                           ; preds = %33, %lean_alloc_ctor.exit
  %.sink24 = phi ptr [ %30, %lean_alloc_ctor.exit ], [ %34, %33 ]
  %.sink = phi ptr [ %22, %lean_alloc_ctor.exit ], [ inttoptr (i64 1 to ptr), %33 ]
  %37 = getelementptr inbounds nuw i8, ptr %.sink24, i64 4
  store i32 1, ptr %.sink24, align 4, !tbaa !8
  store i32 131096, ptr %37, align 4
  %38 = getelementptr inbounds nuw i8, ptr %.sink24, i64 8
  store ptr %.sink, ptr %38, align 8, !tbaa !4
  %39 = getelementptr inbounds nuw i8, ptr %.sink24, i64 16
  store ptr %6, ptr %39, align 8, !tbaa !4
  ret ptr %.sink24
}